target datalayout = "e-m:e-p270:32:32-p271:32:32-p272:64:64-i64:64-i128:128-f80:128-n8:16:32:64-S128"
target triple = "x86_64-pc-linux-gnu"

%"class.std::__cxx11::basic_string" = type { %"struct.std::__cxx11::basic_string<char>::_Alloc_hider", i64, %union.anon }
%"struct.std::__cxx11::basic_string<char>::_Alloc_hider" = type { ptr }
%union.anon = type { i64, [8 x i8] }
%"class.std::filesystem::__cxx11::path" = type { %"class.std::__cxx11::basic_string", %"struct.std::filesystem::__cxx11::path::_List" }
%"struct.std::filesystem::__cxx11::path::_List" = type { %"class.std::unique_ptr" }
%"class.std::unique_ptr" = type { %"struct.std::__uniq_ptr_data" }
%"struct.std::__uniq_ptr_data" = type { %"class.std::__uniq_ptr_impl" }
%"class.std::__uniq_ptr_impl" = type { %"class.std::tuple" }
%"class.std::tuple" = type { %"struct.std::_Tuple_impl" }
%"struct.std::_Tuple_impl" = type { %"struct.std::_Head_base.5" }
%"struct.std::_Head_base.5" = type { ptr }

@.str.8 = private unnamed_addr constant [121 x i8] c"generated/home/dtcxzyw/WorkSpace/Projects/compilers/llvm-opt-benchmark/bench/gromacs/gromacs/src/gromacs/pbcutil/pbc.cpp\00", align 1
@.str.29 = private unnamed_addr constant [35 x i8] c"Step %ld: correcting invalid box:\0A\00", align 1
@.str.30 = private unnamed_addr constant [8 x i8] c"old box\00", align 1
@.str.31 = private unnamed_addr constant [8 x i8] c"new box\00", align 1
@.str.32 = private unnamed_addr constant [56 x i8] c"Box was shifted at least %d times. Please see log-file.\00", align 1

; Function Attrs: inlinehint mustprogress nounwind uwtable
define internal void @_ZL8rvec_incPfPKf(ptr noundef %0, ptr noundef %1) #4 {
  %3 = alloca ptr, align 8
  %4 = alloca ptr, align 8
  %5 = alloca float, align 4
  %6 = alloca float, align 4
  %7 = alloca float, align 4
  store ptr %0, ptr %3, align 8, !tbaa !48
  store ptr %1, ptr %4, align 8, !tbaa !48
  call void @llvm.lifetime.start.p0(i64 4, ptr %5) #5
  call void @llvm.lifetime.start.p0(i64 4, ptr %6) #5
  call void @llvm.lifetime.start.p0(i64 4, ptr %7) #5
  %8 = load ptr, ptr %3, align 8, !tbaa !48
  %9 = getelementptr inbounds float, ptr %8, i64 0
  %10 = load float, ptr %9, align 4, !tbaa !50
  %11 = load ptr, ptr %4, align 8, !tbaa !48
  %12 = getelementptr inbounds float, ptr %11, i64 0
  %13 = load float, ptr %12, align 4, !tbaa !50
  %14 = fadd float %10, %13
  store float %14, ptr %5, align 4, !tbaa !50
  %15 = load ptr, ptr %3, align 8, !tbaa !48
  %16 = getelementptr inbounds float, ptr %15, i64 1
  %17 = load float, ptr %16, align 4, !tbaa !50
  %18 = load ptr, ptr %4, align 8, !tbaa !48
  %19 = getelementptr inbounds float, ptr %18, i64 1
  %20 = load float, ptr %19, align 4, !tbaa !50
  %21 = fadd float %17, %20
  store float %21, ptr %6, align 4, !tbaa !50
  %22 = load ptr, ptr %3, align 8, !tbaa !48
  %23 = getelementptr inbounds float, ptr %22, i64 2
  %24 = load float, ptr %23, align 4, !tbaa !50
  %25 = load ptr, ptr %4, align 8, !tbaa !48
  %26 = getelementptr inbounds float, ptr %25, i64 2
  %27 = load float, ptr %26, align 4, !tbaa !50
  %28 = fadd float %24, %27
  store float %28, ptr %7, align 4, !tbaa !50
  %29 = load float, ptr %5, align 4, !tbaa !50
  %30 = load ptr, ptr %3, align 8, !tbaa !48
  %31 = getelementptr inbounds float, ptr %30, i64 0
  store float %29, ptr %31, align 4, !tbaa !50
  %32 = load float, ptr %6, align 4, !tbaa !50
  %33 = load ptr, ptr %3, align 8, !tbaa !48
  %34 = getelementptr inbounds float, ptr %33, i64 1
  store float %32, ptr %34, align 4, !tbaa !50
  %35 = load float, ptr %7, align 4, !tbaa !50
  %36 = load ptr, ptr %3, align 8, !tbaa !48
  %37 = getelementptr inbounds float, ptr %36, i64 2
  store float %35, ptr %37, align 4, !tbaa !50
  call void @llvm.lifetime.end.p0(i64 4, ptr %7) #5
  call void @llvm.lifetime.end.p0(i64 4, ptr %6) #5
  call void @llvm.lifetime.end.p0(i64 4, ptr %5) #5
  ret void
}

; Function Attrs: inlinehint mustprogress nounwind uwtable
define internal void @_ZL8rvec_decPfPKf(ptr noundef %0, ptr noundef %1) #4 {
  %3 = alloca ptr, align 8
  %4 = alloca ptr, align 8
  %5 = alloca float, align 4
  %6 = alloca float, align 4
  %7 = alloca float, align 4
  store ptr %0, ptr %3, align 8, !tbaa !48
  store ptr %1, ptr %4, align 8, !tbaa !48
  call void @llvm.lifetime.start.p0(i64 4, ptr %5) #5
  call void @llvm.lifetime.start.p0(i64 4, ptr %6) #5
  call void @llvm.lifetime.start.p0(i64 4, ptr %7) #5
  %8 = load ptr, ptr %3, align 8, !tbaa !48
  %9 = getelementptr inbounds float, ptr %8, i64 0
  %10 = load float, ptr %9, align 4, !tbaa !50
  %11 = load ptr, ptr %4, align 8, !tbaa !48
  %12 = getelementptr inbounds float, ptr %11, i64 0
  %13 = load float, ptr %12, align 4, !tbaa !50
  %14 = fsub float %10, %13
  store float %14, ptr %5, align 4, !tbaa !50
  %15 = load ptr, ptr %3, align 8, !tbaa !48
  %16 = getelementptr inbounds float, ptr %15, i64 1
  %17 = load float, ptr %16, align 4, !tbaa !50
  %18 = load ptr, ptr %4, align 8, !tbaa !48
  %19 = getelementptr inbounds float, ptr %18, i64 1
  %20 = load float, ptr %19, align 4, !tbaa !50
  %21 = fsub float %17, %20
  store float %21, ptr %6, align 4, !tbaa !50
  %22 = load ptr, ptr %3, align 8, !tbaa !48
  %23 = getelementptr inbounds float, ptr %22, i64 2
  %24 = load float, ptr %23, align 4, !tbaa !50
  %25 = load ptr, ptr %4, align 8, !tbaa !48
  %26 = getelementptr inbounds float, ptr %25, i64 2
  %27 = load float, ptr %26, align 4, !tbaa !50
  %28 = fsub float %24, %27
  store float %28, ptr %7, align 4, !tbaa !50
  %29 = load float, ptr %5, align 4, !tbaa !50
  %30 = load ptr, ptr %3, align 8, !tbaa !48
  %31 = getelementptr inbounds float, ptr %30, i64 0
  store float %29, ptr %31, align 4, !tbaa !50
  %32 = load float, ptr %6, align 4, !tbaa !50
  %33 = load ptr, ptr %3, align 8, !tbaa !48
  %34 = getelementptr inbounds float, ptr %33, i64 1
  store float %32, ptr %34, align 4, !tbaa !50
  %35 = load float, ptr %7, align 4, !tbaa !50
  %36 = load ptr, ptr %3, align 8, !tbaa !48
  %37 = getelementptr inbounds float, ptr %36, i64 2
  store float %35, ptr %37, align 4, !tbaa !50
  call void @llvm.lifetime.end.p0(i64 4, ptr %7) #5
  call void @llvm.lifetime.end.p0(i64 4, ptr %6) #5
  call void @llvm.lifetime.end.p0(i64 4, ptr %5) #5
  ret void
}

; Function Attrs: mustprogress nounwind uwtable
define linkonce_odr noundef float @_Zli5_reale(x86_fp80 noundef %0) #2 comdat {
  %2 = alloca x86_fp80, align 16
  store x86_fp80 %0, ptr %2, align 16, !tbaa !55
  %3 = load x86_fp80, ptr %2, align 16, !tbaa !55
  %4 = fptrunc x86_fp80 %3 to float
  ret float %4
}

; Function Attrs: mustprogress uwtable
define internal noundef i32 @_ZL16correct_box_elemP8_IO_FILElPA3_fii(ptr noundef %0, i64 noundef %1, ptr noundef %2, i32 noundef %3, i32 noundef %4) #3 personality ptr @__gxx_personality_v0 {
  %6 = alloca ptr, align 8
  %7 = alloca i64, align 8
  %8 = alloca ptr, align 8
  %9 = alloca i32, align 4
  %10 = alloca i32, align 4
  %11 = alloca i32, align 4
  %12 = alloca i32, align 4
  %13 = alloca %"class.std::filesystem::__cxx11::path", align 8
  %14 = alloca ptr, align 8
  %15 = alloca i32, align 4
  %16 = alloca %"class.std::filesystem::__cxx11::path", align 8
  store ptr %0, ptr %6, align 8, !tbaa !39
  store i64 %1, ptr %7, align 8, !tbaa !21
  store ptr %2, ptr %8, align 8, !tbaa !48
  store i32 %3, ptr %9, align 4, !tbaa !36
  store i32 %4, ptr %10, align 4, !tbaa !36
  call void @llvm.lifetime.start.p0(i64 4, ptr %11) #5
  call void @llvm.lifetime.start.p0(i64 4, ptr %12) #5
  store i32 10, ptr %12, align 4, !tbaa !36
  store i32 0, ptr %11, align 4, !tbaa !36
  br label %17

17:                                               ; preds = %77, %5
  %18 = load ptr, ptr %8, align 8, !tbaa !48
  %19 = load i32, ptr %9, align 4, !tbaa !36
  %20 = sext i32 %19 to i64
  %21 = getelementptr inbounds [3 x float], ptr %18, i64 %20
  %22 = load i32, ptr %10, align 4, !tbaa !36
  %23 = sext i32 %22 to i64
  %24 = getelementptr inbounds [3 x float], ptr %21, i64 0, i64 %23
  %25 = load float, ptr %24, align 4, !tbaa !50
  %26 = call noundef float @_Zli5_reale(x86_fp80 noundef 0xK3FFE8000000000000000)
  %27 = fmul float 0x3FF00418A0000000, %26
  %28 = load ptr, ptr %8, align 8, !tbaa !48
  %29 = load i32, ptr %10, align 4, !tbaa !36
  %30 = sext i32 %29 to i64
  %31 = getelementptr inbounds [3 x float], ptr %28, i64 %30
  %32 = load i32, ptr %10, align 4, !tbaa !36
  %33 = sext i32 %32 to i64
  %34 = getelementptr inbounds [3 x float], ptr %31, i64 0, i64 %33
  %35 = load float, ptr %34, align 4, !tbaa !50
  %36 = fmul float %27, %35
  %37 = fcmp ogt float %25, %36
  br i1 %37, label %38, label %78

38:                                               ; preds = %17
  %39 = load ptr, ptr %6, align 8, !tbaa !39
  %40 = icmp ne ptr %39, null
  br i1 %40, label %41, label %47

41:                                               ; preds = %38
  %42 = load ptr, ptr %6, align 8, !tbaa !39
  %43 = load i64, ptr %7, align 8, !tbaa !21
  %44 = call i32 (ptr, ptr, ...) @fprintf(ptr noundef %42, ptr noundef @.str.29, i64 noundef %43) #5
  %45 = load ptr, ptr %6, align 8, !tbaa !39
  %46 = load ptr, ptr %8, align 8, !tbaa !48
  call void @_Z8pr_rvecsP8_IO_FILEiPKcPA3_Kfi(ptr noundef %45, i32 noundef 0, ptr noundef @.str.30, ptr noundef %46, i32 noundef 3)
  br label %47

47:                                               ; preds = %41, %38
  %48 = load ptr, ptr %8, align 8, !tbaa !48
  %49 = load i32, ptr %9, align 4, !tbaa !36
  %50 = sext i32 %49 to i64
  %51 = getelementptr inbounds [3 x float], ptr %48, i64 %50
  %52 = getelementptr inbounds [3 x float], ptr %51, i64 0, i64 0
  %53 = load ptr, ptr %8, align 8, !tbaa !48
  %54 = load i32, ptr %10, align 4, !tbaa !36
  %55 = sext i32 %54 to i64
  %56 = getelementptr inbounds [3 x float], ptr %53, i64 %55
  %57 = getelementptr inbounds [3 x float], ptr %56, i64 0, i64 0
  call void @_ZL8rvec_decPfPKf(ptr noundef %52, ptr noundef %57)
  %58 = load i32, ptr %11, align 4, !tbaa !36
  %59 = add nsw i32 %58, -1
  store i32 %59, ptr %11, align 4, !tbaa !36
  %60 = load ptr, ptr %6, align 8, !tbaa !39
  %61 = icmp ne ptr %60, null
  br i1 %61, label %62, label %65

62:                                               ; preds = %47
  %63 = load ptr, ptr %6, align 8, !tbaa !39
  %64 = load ptr, ptr %8, align 8, !tbaa !48
  call void @_Z8pr_rvecsP8_IO_FILEiPKcPA3_Kfi(ptr noundef %63, i32 noundef 0, ptr noundef @.str.31, ptr noundef %64, i32 noundef 3)
  br label %65

65:                                               ; preds = %62, %47
  %66 = load i32, ptr %11, align 4, !tbaa !36
  %67 = load i32, ptr %12, align 4, !tbaa !36
  %68 = sub nsw i32 0, %67
  %69 = icmp sle i32 %66, %68
  br i1 %69, label %70, label %77

70:                                               ; preds = %65
  call void @llvm.lifetime.start.p0(i64 40, ptr %13) #5
  call void @_ZNSt10filesystem7__cxx114pathC2IA121_cS1_EERKT_NS1_6formatE(ptr noundef nonnull align 8 dereferenceable(40) %13, ptr noundef nonnull align 1 dereferenceable(121) @.str.8, i8 noundef zeroext 2)
  %71 = load i32, ptr %12, align 4, !tbaa !36
  invoke void (i32, ptr, i32, ptr, ...) @_Z9gmx_fataliRKNSt10filesystem7__cxx114pathEiPKcz(i32 noundef 0, ptr noundef nonnull align 8 dereferenceable(40) %13, i32 noundef 307, ptr noundef @.str.32, i32 noundef %71) #20
          to label %72 unwind label %73

72:                                               ; preds = %70
  unreachable

73:                                               ; preds = %70
  %74 = landingpad { ptr, i32 }
          cleanup
  %75 = extractvalue { ptr, i32 } %74, 0
  store ptr %75, ptr %14, align 8
  %76 = extractvalue { ptr, i32 } %74, 1
  store i32 %76, ptr %15, align 4
  call void @_ZNSt10filesystem7__cxx114pathD2Ev(ptr noundef nonnull align 8 dereferenceable(40) %13) #5
  call void @llvm.lifetime.end.p0(i64 40, ptr %13) #5
  br label %141

77:                                               ; preds = %65
  br label %17, !llvm.loop !57

78:                                               ; preds = %17
  br label %79

79:                                               ; preds = %138, %78
  %80 = load ptr, ptr %8, align 8, !tbaa !48
  %81 = load i32, ptr %9, align 4, !tbaa !36
  %82 = sext i32 %81 to i64
  %83 = getelementptr inbounds [3 x float], ptr %80, i64 %82
  %84 = load i32, ptr %10, align 4, !tbaa !36
  %85 = sext i32 %84 to i64
  %86 = getelementptr inbounds [3 x float], ptr %83, i64 0, i64 %85
  %87 = load float, ptr %86, align 4, !tbaa !50
  %88 = call noundef float @_Zli5_reale(x86_fp80 noundef 0xK3FFE8000000000000000)
  %89 = fmul float 0xBFF00418A0000000, %88
  %90 = load ptr, ptr %8, align 8, !tbaa !48
  %91 = load i32, ptr %10, align 4, !tbaa !36
  %92 = sext i32 %91 to i64
  %93 = getelementptr inbounds [3 x float], ptr %90, i64 %92
  %94 = load i32, ptr %10, align 4, !tbaa !36
  %95 = sext i32 %94 to i64
  %96 = getelementptr inbounds [3 x float], ptr %93, i64 0, i64 %95
  %97 = load float, ptr %96, align 4, !tbaa !50
  %98 = fmul float %89, %97
  %99 = fcmp olt float %87, %98
  br i1 %99, label %100, label %139

100:                                              ; preds = %79
  %101 = load ptr, ptr %6, align 8, !tbaa !39
  %102 = icmp ne ptr %101, null
  br i1 %102, label %103, label %109

103:                                              ; preds = %100
  %104 = load ptr, ptr %6, align 8, !tbaa !39
  %105 = load i64, ptr %7, align 8, !tbaa !21
  %106 = call i32 (ptr, ptr, ...) @fprintf(ptr noundef %104, ptr noundef @.str.29, i64 noundef %105) #5
  %107 = load ptr, ptr %6, align 8, !tbaa !39
  %108 = load ptr, ptr %8, align 8, !tbaa !48
  call void @_Z8pr_rvecsP8_IO_FILEiPKcPA3_Kfi(ptr noundef %107, i32 noundef 0, ptr noundef @.str.30, ptr noundef %108, i32 noundef 3)
  br label %109

109:                                              ; preds = %103, %100
  %110 = load ptr, ptr %8, align 8, !tbaa !48
  %111 = load i32, ptr %9, align 4, !tbaa !36
  %112 = sext i32 %111 to i64
  %113 = getelementptr inbounds [3 x float], ptr %110, i64 %112
  %114 = getelementptr inbounds [3 x float], ptr %113, i64 0, i64 0
  %115 = load ptr, ptr %8, align 8, !tbaa !48
  %116 = load i32, ptr %10, align 4, !tbaa !36
  %117 = sext i32 %116 to i64
  %118 = getelementptr inbounds [3 x float], ptr %115, i64 %117
  %119 = getelementptr inbounds [3 x float], ptr %118, i64 0, i64 0
  call void @_ZL8rvec_incPfPKf(ptr noundef %114, ptr noundef %119)
  %120 = load i32, ptr %11, align 4, !tbaa !36
  %121 = add nsw i32 %120, 1
  store i32 %121, ptr %11, align 4, !tbaa !36
  %122 = load ptr, ptr %6, align 8, !tbaa !39
  %123 = icmp ne ptr %122, null
  br i1 %123, label %124, label %127

124:                                              ; preds = %109
  %125 = load ptr, ptr %6, align 8, !tbaa !39
  %126 = load ptr, ptr %8, align 8, !tbaa !48
  call void @_Z8pr_rvecsP8_IO_FILEiPKcPA3_Kfi(ptr noundef %125, i32 noundef 0, ptr noundef @.str.31, ptr noundef %126, i32 noundef 3)
  br label %127

127:                                              ; preds = %124, %109
  %128 = load i32, ptr %11, align 4, !tbaa !36
  %129 = load i32, ptr %12, align 4, !tbaa !36
  %130 = icmp sge i32 %128, %129
  br i1 %130, label %131, label %138

131:                                              ; preds = %127
  call void @llvm.lifetime.start.p0(i64 40, ptr %16) #5
  call void @_ZNSt10filesystem7__cxx114pathC2IA121_cS1_EERKT_NS1_6formatE(ptr noundef nonnull align 8 dereferenceable(40) %16, ptr noundef nonnull align 1 dereferenceable(121) @.str.8, i8 noundef zeroext 2)
  %132 = load i32, ptr %12, align 4, !tbaa !36
  invoke void (i32, ptr, i32, ptr, ...) @_Z9gmx_fataliRKNSt10filesystem7__cxx114pathEiPKcz(i32 noundef 0, ptr noundef nonnull align 8 dereferenceable(40) %16, i32 noundef 325, ptr noundef @.str.32, i32 noundef %132) #20
          to label %133 unwind label %134

133:                                              ; preds = %131
  unreachable

134:                                              ; preds = %131
  %135 = landingpad { ptr, i32 }
          cleanup
  %136 = extractvalue { ptr, i32 } %135, 0
  store ptr %136, ptr %14, align 8
  %137 = extractvalue { ptr, i32 } %135, 1
  store i32 %137, ptr %15, align 4
  call void @_ZNSt10filesystem7__cxx114pathD2Ev(ptr noundef nonnull align 8 dereferenceable(40) %16) #5
  call void @llvm.lifetime.end.p0(i64 40, ptr %16) #5
  br label %141

138:                                              ; preds = %127
  br label %79, !llvm.loop !59

139:                                              ; preds = %79
  %140 = load i32, ptr %11, align 4, !tbaa !36
  call void @llvm.lifetime.end.p0(i64 4, ptr %12) #5
  call void @llvm.lifetime.end.p0(i64 4, ptr %11) #5
  ret i32 %140

141:                                              ; preds = %134, %73
  call void @llvm.lifetime.end.p0(i64 4, ptr %12) #5
  call void @llvm.lifetime.end.p0(i64 4, ptr %11) #5
  br label %142

142:                                              ; preds = %141
  %143 = load ptr, ptr %14, align 8
  %144 = load i32, ptr %15, align 4
  %145 = insertvalue { ptr, i32 } poison, ptr %143, 0
  %146 = insertvalue { ptr, i32 } %145, i32 %144, 1
  resume { ptr, i32 } %146
}