; Function Attrs: mustprogress uwtable
define internal fastcc noundef range(i32 -2147483647, 2147483647) i32 @_ZL16correct_box_elemP8_IO_FILElPA3_fii(ptr noundef %0, i64 noundef %1, ptr noundef %2, i32 noundef range(i32 1, 3) %3, i32 noundef range(i32 0, 2) %4) unnamed_addr #1 personality ptr @__gxx_personality_v0 {
  %6 = alloca %"class.std::filesystem::__cxx11::path", align 8
  %7 = alloca %"class.std::filesystem::__cxx11::path", align 8
  %8 = zext nneg i32 %3 to i64
  %9 = getelementptr inbounds nuw [3 x float], ptr %2, i64 %8
  %10 = zext nneg i32 %4 to i64
  %11 = getelementptr inbounds nuw [3 x float], ptr %2, i64 %8, i64 %10
  %12 = getelementptr inbounds nuw [3 x float], ptr %2, i64 %10
  %13 = getelementptr inbounds nuw [3 x float], ptr %2, i64 %10, i64 %10
  %.not52 = icmp eq ptr %0, null
  %14 = getelementptr inbounds nuw i8, ptr %9, i64 4
  %15 = getelementptr inbounds nuw i8, ptr %12, i64 4
  %16 = getelementptr inbounds nuw i8, ptr %9, i64 8
  %17 = getelementptr inbounds nuw i8, ptr %12, i64 8
  br i1 %.not52, label %.split.us, label %.split

.split.us:                                        ; preds = %5, %22
  %.047.us = phi i32 [ %32, %22 ], [ 0, %5 ]
  %18 = load float, ptr %11, align 4, !tbaa !21
  %19 = load float, ptr %13, align 4, !tbaa !21
  %20 = fmul float %19, 0x3FE00418A0000000
  %21 = fcmp ogt float %18, %20
  br i1 %21, label %22, label %.preheader.split69.us

22:                                               ; preds = %.split.us
  %23 = load float, ptr %9, align 4, !tbaa !21
  %24 = load float, ptr %12, align 4, !tbaa !21
  %25 = fsub float %23, %24
  %26 = load float, ptr %14, align 4, !tbaa !21
  %27 = load float, ptr %15, align 4, !tbaa !21
  %28 = fsub float %26, %27
  %29 = load float, ptr %16, align 4, !tbaa !21
  %30 = load float, ptr %17, align 4, !tbaa !21
  %31 = fsub float %29, %30
  store float %25, ptr %9, align 4, !tbaa !21
  store float %28, ptr %14, align 4, !tbaa !21
  store float %31, ptr %16, align 4, !tbaa !21
  %32 = add nsw i32 %.047.us, -1
  %33 = icmp slt i32 %.047.us, -8
  br i1 %33, label %.split68.us, label %.split.us, !llvm.loop !27

.split:                                           ; preds = %5, %53
  %.047 = phi i32 [ %64, %53 ], [ 0, %5 ]
  %34 = load float, ptr %11, align 4, !tbaa !21
  %35 = load float, ptr %13, align 4, !tbaa !21
  %36 = fmul float %35, 0x3FE00418A0000000
  %37 = fcmp ogt float %34, %36
  br i1 %37, label %53, label %.preheader.split69

.preheader.split69.us:                            ; preds = %.split.us, %42
  %.1.us = phi i32 [ %52, %42 ], [ %.047.us, %.split.us ]
  %38 = load float, ptr %11, align 4, !tbaa !21
  %39 = load float, ptr %13, align 4, !tbaa !21
  %40 = fmul float %39, 0xBFE00418A0000000
  %41 = fcmp olt float %38, %40
  br i1 %41, label %42, label %.split71.us

42:                                               ; preds = %.preheader.split69.us
  %43 = load float, ptr %9, align 4, !tbaa !21
  %44 = load float, ptr %12, align 4, !tbaa !21
  %45 = fadd float %43, %44
  %46 = load float, ptr %14, align 4, !tbaa !21
  %47 = load float, ptr %15, align 4, !tbaa !21
  %48 = fadd float %46, %47
  %49 = load float, ptr %16, align 4, !tbaa !21
  %50 = load float, ptr %17, align 4, !tbaa !21
  %51 = fadd float %49, %50
  store float %45, ptr %9, align 4, !tbaa !21
  store float %48, ptr %14, align 4, !tbaa !21
  store float %51, ptr %16, align 4, !tbaa !21
  %52 = add nsw i32 %.1.us, 1
  %exitcond83 = icmp eq i32 %52, 10
  br i1 %exitcond83, label %.split74.us, label %.preheader.split69.us, !llvm.loop !29

53:                                               ; preds = %.split
  %54 = tail call i32 (ptr, ptr, ...) @fprintf(ptr noundef nonnull %0, ptr noundef nonnull @.str.29, i64 noundef %1) #20
  tail call void @_Z8pr_rvecsP8_IO_FILEiPKcPA3_Kfi(ptr noundef nonnull %0, i32 noundef 0, ptr noundef nonnull @.str.30, ptr noundef nonnull %2, i32 noundef 3)
  %55 = load float, ptr %9, align 4, !tbaa !21
  %56 = load float, ptr %12, align 4, !tbaa !21
  %57 = fsub float %55, %56
  %58 = load float, ptr %14, align 4, !tbaa !21
  %59 = load float, ptr %15, align 4, !tbaa !21
  %60 = fsub float %58, %59
  %61 = load float, ptr %16, align 4, !tbaa !21
  %62 = load float, ptr %17, align 4, !tbaa !21
  %63 = fsub float %61, %62
  store float %57, ptr %9, align 4, !tbaa !21
  store float %60, ptr %14, align 4, !tbaa !21
  store float %63, ptr %16, align 4, !tbaa !21
  %64 = add nsw i32 %.047, -1
  tail call void @_Z8pr_rvecsP8_IO_FILEiPKcPA3_Kfi(ptr noundef nonnull %0, i32 noundef 0, ptr noundef nonnull @.str.31, ptr noundef nonnull %2, i32 noundef 3)
  %65 = icmp slt i32 %.047, -8
  br i1 %65, label %.split68.us, label %.split, !llvm.loop !27

.split68.us:                                      ; preds = %53, %22
  call void @llvm.lifetime.start.p0(i64 40, ptr nonnull %6) #20
  call void @_ZNSt10filesystem7__cxx114pathC2IA121_cS1_EERKT_NS1_6formatE(ptr noundef nonnull align 8 dereferenceable(40) %6, ptr noundef nonnull align 1 dereferenceable(121) @.str.8, i8 noundef zeroext 2)
  invoke void (i32, ptr, i32, ptr, ...) @_Z9gmx_fataliRKNSt10filesystem7__cxx114pathEiPKcz(i32 noundef 0, ptr noundef nonnull align 8 dereferenceable(40) %6, i32 noundef 307, ptr noundef nonnull @.str.32, i32 noundef 10) #28
          to label %66 unwind label %67

66:                                               ; preds = %.split68.us
  unreachable

67:                                               ; preds = %.split68.us
  %68 = landingpad { ptr, i32 }
          cleanup
  call void @_ZNSt10filesystem7__cxx114pathD2Ev(ptr noundef nonnull align 8 dereferenceable(40) %6) #20
  call void @llvm.lifetime.end.p0(i64 40, ptr nonnull %6) #20
  br label %88

.preheader.split69:                               ; preds = %.split, %73
  %.1 = phi i32 [ %84, %73 ], [ %.047, %.split ]
  %69 = load float, ptr %11, align 4, !tbaa !21
  %70 = load float, ptr %13, align 4, !tbaa !21
  %71 = fmul float %70, 0xBFE00418A0000000
  %72 = fcmp olt float %69, %71
  br i1 %72, label %73, label %.split71.us

73:                                               ; preds = %.preheader.split69
  %74 = tail call i32 (ptr, ptr, ...) @fprintf(ptr noundef nonnull %0, ptr noundef nonnull @.str.29, i64 noundef %1) #20
  tail call void @_Z8pr_rvecsP8_IO_FILEiPKcPA3_Kfi(ptr noundef nonnull %0, i32 noundef 0, ptr noundef nonnull @.str.30, ptr noundef nonnull %2, i32 noundef 3)
  %75 = load float, ptr %9, align 4, !tbaa !21
  %76 = load float, ptr %12, align 4, !tbaa !21
  %77 = fadd float %75, %76
  %78 = load float, ptr %14, align 4, !tbaa !21
  %79 = load float, ptr %15, align 4, !tbaa !21
  %80 = fadd float %78, %79
  %81 = load float, ptr %16, align 4, !tbaa !21
  %82 = load float, ptr %17, align 4, !tbaa !21
  %83 = fadd float %81, %82
  store float %77, ptr %9, align 4, !tbaa !21
  store float %80, ptr %14, align 4, !tbaa !21
  store float %83, ptr %16, align 4, !tbaa !21
  %84 = add nsw i32 %.1, 1
  tail call void @_Z8pr_rvecsP8_IO_FILEiPKcPA3_Kfi(ptr noundef nonnull %0, i32 noundef 0, ptr noundef nonnull @.str.31, ptr noundef nonnull %2, i32 noundef 3)
  %exitcond = icmp eq i32 %84, 10
  br i1 %exitcond, label %.split74.us, label %.preheader.split69, !llvm.loop !29

.split74.us:                                      ; preds = %73, %42
  call void @llvm.lifetime.start.p0(i64 40, ptr nonnull %7) #20
  call void @_ZNSt10filesystem7__cxx114pathC2IA121_cS1_EERKT_NS1_6formatE(ptr noundef nonnull align 8 dereferenceable(40) %7, ptr noundef nonnull align 1 dereferenceable(121) @.str.8, i8 noundef zeroext 2)
  invoke void (i32, ptr, i32, ptr, ...) @_Z9gmx_fataliRKNSt10filesystem7__cxx114pathEiPKcz(i32 noundef 0, ptr noundef nonnull align 8 dereferenceable(40) %7, i32 noundef 325, ptr noundef nonnull @.str.32, i32 noundef 10) #28
          to label %85 unwind label %86

85:                                               ; preds = %.split74.us
  unreachable

86:                                               ; preds = %.split74.us
  %87 = landingpad { ptr, i32 }
          cleanup
  call void @_ZNSt10filesystem7__cxx114pathD2Ev(ptr noundef nonnull align 8 dereferenceable(40) %7) #20
  call void @llvm.lifetime.end.p0(i64 40, ptr nonnull %7) #20
  br label %88

.split71.us:                                      ; preds = %.preheader.split69, %.preheader.split69.us
  %.us-phi72 = phi i32 [ %.1.us, %.preheader.split69.us ], [ %.1, %.preheader.split69 ]
  ret i32 %.us-phi72

88:                                               ; preds = %86, %67
  %.pn = phi { ptr, i32 } [ %68, %67 ], [ %87, %86 ]
  resume { ptr, i32 } %.pn
}